target datalayout = "e-m:e-p270:32:32-p271:32:32-p272:64:64-i64:64-i128:128-f80:128-n8:16:32:64-S128"
target triple = "x86_64-pc-linux-gnu"

%struct.nstime_t = type { i64, i32 }
%struct._scsi_osd_lun_info_t = type { ptr }
%struct._packet_info = type { ptr, ptr, i32, i32, %struct.nstime_t, %struct.nstime_t, %struct.nstime_t, i8, ptr, ptr, ptr, ptr, %struct._address, %struct._address, %struct._address, %struct._address, %struct._address, %struct._address, i32, ptr, i8, [3 x i8], %struct.anon, i32, i32, i32, i32, ptr, i8, ptr, ptr, i16, i16, i32, i32, i16, i32, i32, ptr, ptr, ptr, i8, i8, i16, i16, i16, i32, i16, i16, ptr, ptr, ptr, ptr, ptr, i32, i32 }
%struct._address = type { i32, i32, ptr, ptr }
%struct.anon = type { i8, [3 x i8] }
%struct._wmem_tree_key_t = type { i32, ptr }
%struct._partition_info_t = type { i32, i32 }
%struct._proto_node = type { ptr, ptr, ptr, ptr, ptr, ptr, ptr }
%struct.field_info = type { ptr, i32, i32, i32, i32, i32, i32, ptr, ptr, ptr, i32, i32 }

@hf_scsi_osd_partition_created_in = internal global i32 0, align 4
@hf_scsi_osd_partition_removed_in = internal global i32 0, align 4
@ett_osd_partition = internal global i32 0, align 4
@.str.264 = private unnamed_addr constant [18 x i8] c" (ROOT partition)\00", align 1

; Function Attrs: inlinehint nounwind null_pointer_is_valid sspstrong uwtable
define internal void @proto_item_set_generated(ptr noundef %0) #5 {
  %2 = alloca ptr, align 8
  store ptr %0, ptr %2, align 8
  %3 = load ptr, ptr %2, align 8
  %4 = icmp ne ptr %3, null
  br i1 %4, label %5, label %24

5:                                                ; preds = %1
  br label %6

6:                                                ; preds = %5
  %7 = load ptr, ptr %2, align 8
  %8 = getelementptr inbounds nuw %struct._proto_node, ptr %7, i32 0, i32 5
  %9 = load ptr, ptr %8, align 8
  %10 = icmp ne ptr %9, null
  br i1 %10, label %11, label %22

11:                                               ; preds = %6
  %12 = load ptr, ptr %2, align 8
  %13 = getelementptr inbounds nuw %struct._proto_node, ptr %12, i32 0, i32 5
  %14 = load ptr, ptr %13, align 8
  %15 = getelementptr inbounds nuw %struct.field_info, ptr %14, i32 0, i32 6
  %16 = load i32, ptr %15, align 4
  %17 = or i32 %16, 2
  %18 = load ptr, ptr %2, align 8
  %19 = getelementptr inbounds nuw %struct._proto_node, ptr %18, i32 0, i32 5
  %20 = load ptr, ptr %19, align 8
  %21 = getelementptr inbounds nuw %struct.field_info, ptr %20, i32 0, i32 6
  store i32 %17, ptr %21, align 4
  br label %22

22:                                               ; preds = %11, %6
  br label %23

23:                                               ; preds = %22
  br label %24

24:                                               ; preds = %23, %1
  ret void
}

; Function Attrs: null_pointer_is_valid sspstrong uwtable
define internal ptr @dissect_osd_partition_id(ptr noundef %0, ptr noundef %1, i32 noundef %2, ptr noundef %3, i32 noundef %4, ptr noundef %5, i1 noundef zeroext %6, i1 noundef zeroext %7) #3 {
  %9 = alloca ptr, align 8
  %10 = alloca ptr, align 8
  %11 = alloca i32, align 4
  %12 = alloca ptr, align 8
  %13 = alloca i32, align 4
  %14 = alloca ptr, align 8
  %15 = alloca i8, align 1
  %16 = alloca i8, align 1
  %17 = alloca ptr, align 8
  %18 = alloca [2 x i32], align 4
  %19 = alloca ptr, align 8
  %20 = alloca [2 x %struct._wmem_tree_key_t], align 16
  %21 = alloca ptr, align 8
  %22 = alloca ptr, align 8
  %23 = alloca ptr, align 8
  store ptr %0, ptr %9, align 8
  store ptr %1, ptr %10, align 8
  store i32 %2, ptr %11, align 4
  store ptr %3, ptr %12, align 8
  store i32 %4, ptr %13, align 4
  store ptr %5, ptr %14, align 8
  %24 = zext i1 %6 to i8
  store i8 %24, ptr %15, align 1
  %25 = zext i1 %7 to i8
  store i8 %25, ptr %16, align 1
  call void @llvm.lifetime.start.p0(i64 8, ptr %17) #6
  store ptr null, ptr %17, align 8
  call void @llvm.lifetime.start.p0(i64 8, ptr %18) #6
  %26 = load ptr, ptr %12, align 8
  %27 = load i32, ptr %13, align 4
  %28 = load ptr, ptr %10, align 8
  %29 = load i32, ptr %11, align 4
  %30 = call ptr @proto_tree_add_item(ptr noundef %26, i32 noundef %27, ptr noundef %28, i32 noundef %29, i32 noundef 8, i32 noundef 0)
  store ptr %30, ptr %17, align 8
  %31 = load ptr, ptr %10, align 8
  %32 = load i32, ptr %11, align 4
  %33 = call i32 @tvb_get_ntohl(ptr noundef %31, i32 noundef %32)
  %34 = getelementptr [2 x i32], ptr %18, i64 0, i64 0
  store i32 %33, ptr %34, align 4
  %35 = load ptr, ptr %10, align 8
  %36 = load i32, ptr %11, align 4
  %37 = add i32 %36, 4
  %38 = call i32 @tvb_get_ntohl(ptr noundef %35, i32 noundef %37)
  %39 = getelementptr [2 x i32], ptr %18, i64 0, i64 1
  store i32 %38, ptr %39, align 4
  %40 = getelementptr [2 x i32], ptr %18, i64 0, i64 0
  %41 = load i32, ptr %40, align 4
  %42 = icmp ne i32 %41, 0
  br i1 %42, label %49, label %43

43:                                               ; preds = %8
  %44 = getelementptr [2 x i32], ptr %18, i64 0, i64 1
  %45 = load i32, ptr %44, align 4
  %46 = icmp ne i32 %45, 0
  br i1 %46, label %49, label %47

47:                                               ; preds = %43
  %48 = load ptr, ptr %17, align 8
  call void (ptr, ptr, ...) @proto_item_append_text(ptr noundef %48, ptr noundef @.str.264)
  br label %137

49:                                               ; preds = %43, %8
  call void @llvm.lifetime.start.p0(i64 8, ptr %19) #6
  call void @llvm.lifetime.start.p0(i64 32, ptr %20) #6
  call void @llvm.lifetime.start.p0(i64 8, ptr %21) #6
  store ptr null, ptr %21, align 8
  %50 = getelementptr [2 x %struct._wmem_tree_key_t], ptr %20, i64 0, i64 0
  %51 = getelementptr inbounds nuw %struct._wmem_tree_key_t, ptr %50, i32 0, i32 0
  store i32 2, ptr %51, align 16
  %52 = getelementptr inbounds [2 x i32], ptr %18, i64 0, i64 0
  %53 = getelementptr [2 x %struct._wmem_tree_key_t], ptr %20, i64 0, i64 0
  %54 = getelementptr inbounds nuw %struct._wmem_tree_key_t, ptr %53, i32 0, i32 1
  store ptr %52, ptr %54, align 8
  %55 = getelementptr [2 x %struct._wmem_tree_key_t], ptr %20, i64 0, i64 1
  %56 = getelementptr inbounds nuw %struct._wmem_tree_key_t, ptr %55, i32 0, i32 0
  store i32 0, ptr %56, align 16
  %57 = load ptr, ptr %14, align 8
  %58 = getelementptr inbounds nuw %struct._scsi_osd_lun_info_t, ptr %57, i32 0, i32 0
  %59 = load ptr, ptr %58, align 8
  %60 = getelementptr [2 x %struct._wmem_tree_key_t], ptr %20, i64 0, i64 0
  %61 = call ptr @wmem_tree_lookup32_array(ptr noundef %59, ptr noundef %60)
  store ptr %61, ptr %19, align 8
  %62 = load ptr, ptr %19, align 8
  %63 = icmp ne ptr %62, null
  br i1 %63, label %83, label %64

64:                                               ; preds = %49
  %65 = call ptr @wmem_file_scope()
  %66 = call noalias ptr @wmem_alloc(ptr noundef %65, i64 noundef 8) #7
  store ptr %66, ptr %19, align 8
  %67 = load ptr, ptr %19, align 8
  %68 = getelementptr inbounds nuw %struct._partition_info_t, ptr %67, i32 0, i32 0
  store i32 0, ptr %68, align 4
  %69 = load ptr, ptr %19, align 8
  %70 = getelementptr inbounds nuw %struct._partition_info_t, ptr %69, i32 0, i32 1
  store i32 0, ptr %70, align 4
  %71 = getelementptr [2 x %struct._wmem_tree_key_t], ptr %20, i64 0, i64 0
  %72 = getelementptr inbounds nuw %struct._wmem_tree_key_t, ptr %71, i32 0, i32 0
  store i32 2, ptr %72, align 16
  %73 = getelementptr inbounds [2 x i32], ptr %18, i64 0, i64 0
  %74 = getelementptr [2 x %struct._wmem_tree_key_t], ptr %20, i64 0, i64 0
  %75 = getelementptr inbounds nuw %struct._wmem_tree_key_t, ptr %74, i32 0, i32 1
  store ptr %73, ptr %75, align 8
  %76 = getelementptr [2 x %struct._wmem_tree_key_t], ptr %20, i64 0, i64 1
  %77 = getelementptr inbounds nuw %struct._wmem_tree_key_t, ptr %76, i32 0, i32 0
  store i32 0, ptr %77, align 16
  %78 = load ptr, ptr %14, align 8
  %79 = getelementptr inbounds nuw %struct._scsi_osd_lun_info_t, ptr %78, i32 0, i32 0
  %80 = load ptr, ptr %79, align 8
  %81 = getelementptr [2 x %struct._wmem_tree_key_t], ptr %20, i64 0, i64 0
  %82 = load ptr, ptr %19, align 8
  call void @wmem_tree_insert32_array(ptr noundef %80, ptr noundef %81, ptr noundef %82)
  br label %83

83:                                               ; preds = %64, %49
  %84 = load i8, ptr %15, align 1, !range !9, !noundef !10
  %85 = trunc i8 %84 to i1
  br i1 %85, label %86, label %92

86:                                               ; preds = %83
  %87 = load ptr, ptr %9, align 8
  %88 = getelementptr inbounds nuw %struct._packet_info, ptr %87, i32 0, i32 3
  %89 = load i32, ptr %88, align 4
  %90 = load ptr, ptr %19, align 8
  %91 = getelementptr inbounds nuw %struct._partition_info_t, ptr %90, i32 0, i32 0
  store i32 %89, ptr %91, align 4
  br label %92

92:                                               ; preds = %86, %83
  %93 = load i8, ptr %16, align 1, !range !9, !noundef !10
  %94 = trunc i8 %93 to i1
  br i1 %94, label %95, label %101

95:                                               ; preds = %92
  %96 = load ptr, ptr %9, align 8
  %97 = getelementptr inbounds nuw %struct._packet_info, ptr %96, i32 0, i32 3
  %98 = load i32, ptr %97, align 4
  %99 = load ptr, ptr %19, align 8
  %100 = getelementptr inbounds nuw %struct._partition_info_t, ptr %99, i32 0, i32 1
  store i32 %98, ptr %100, align 4
  br label %101

101:                                              ; preds = %95, %92
  %102 = load ptr, ptr %17, align 8
  %103 = icmp ne ptr %102, null
  br i1 %103, label %104, label %108

104:                                              ; preds = %101
  %105 = load ptr, ptr %17, align 8
  %106 = load i32, ptr @ett_osd_partition, align 4
  %107 = call ptr @proto_item_add_subtree(ptr noundef %105, i32 noundef %106)
  store ptr %107, ptr %21, align 8
  br label %108

108:                                              ; preds = %104, %101
  %109 = load ptr, ptr %19, align 8
  %110 = getelementptr inbounds nuw %struct._partition_info_t, ptr %109, i32 0, i32 0
  %111 = load i32, ptr %110, align 4
  %112 = icmp ne i32 %111, 0
  br i1 %112, label %113, label %122

113:                                              ; preds = %108
  call void @llvm.lifetime.start.p0(i64 8, ptr %22) #6
  %114 = load ptr, ptr %21, align 8
  %115 = load i32, ptr @hf_scsi_osd_partition_created_in, align 4
  %116 = load ptr, ptr %10, align 8
  %117 = load ptr, ptr %19, align 8
  %118 = getelementptr inbounds nuw %struct._partition_info_t, ptr %117, i32 0, i32 0
  %119 = load i32, ptr %118, align 4
  %120 = call ptr @proto_tree_add_uint(ptr noundef %114, i32 noundef %115, ptr noundef %116, i32 noundef 0, i32 noundef 0, i32 noundef %119)
  store ptr %120, ptr %22, align 8
  %121 = load ptr, ptr %22, align 8
  call void @proto_item_set_generated(ptr noundef %121)
  call void @llvm.lifetime.end.p0(i64 8, ptr %22) #6
  br label %122

122:                                              ; preds = %113, %108
  %123 = load ptr, ptr %19, align 8
  %124 = getelementptr inbounds nuw %struct._partition_info_t, ptr %123, i32 0, i32 1
  %125 = load i32, ptr %124, align 4
  %126 = icmp ne i32 %125, 0
  br i1 %126, label %127, label %136

127:                                              ; preds = %122
  call void @llvm.lifetime.start.p0(i64 8, ptr %23) #6
  %128 = load ptr, ptr %21, align 8
  %129 = load i32, ptr @hf_scsi_osd_partition_removed_in, align 4
  %130 = load ptr, ptr %10, align 8
  %131 = load ptr, ptr %19, align 8
  %132 = getelementptr inbounds nuw %struct._partition_info_t, ptr %131, i32 0, i32 1
  %133 = load i32, ptr %132, align 4
  %134 = call ptr @proto_tree_add_uint(ptr noundef %128, i32 noundef %129, ptr noundef %130, i32 noundef 0, i32 noundef 0, i32 noundef %133)
  store ptr %134, ptr %23, align 8
  %135 = load ptr, ptr %23, align 8
  call void @proto_item_set_generated(ptr noundef %135)
  call void @llvm.lifetime.end.p0(i64 8, ptr %23) #6
  br label %136

136:                                              ; preds = %127, %122
  call void @llvm.lifetime.end.p0(i64 8, ptr %21) #6
  call void @llvm.lifetime.end.p0(i64 32, ptr %20) #6
  call void @llvm.lifetime.end.p0(i64 8, ptr %19) #6
  br label %137

137:                                              ; preds = %136, %47
  %138 = load ptr, ptr %17, align 8
  call void @llvm.lifetime.end.p0(i64 8, ptr %18) #6
  call void @llvm.lifetime.end.p0(i64 8, ptr %17) #6
  ret ptr %138
}