; Function Attrs: null_pointer_is_valid sspstrong uwtable
define internal fastcc ptr @dissect_osd_partition_id(ptr noundef readonly captures(none) %0, ptr noundef %1, i32 noundef %2, ptr noundef %3, i32 noundef %4, ptr noundef readonly captures(none) %5, i1 noundef zeroext %6, i1 noundef zeroext %7) unnamed_addr #3 {
  %9 = alloca [2 x i32], align 4
  %10 = alloca [2 x %struct._wmem_tree_key_t], align 16
  call void @llvm.lifetime.start.p0(i64 8, ptr nonnull %9) #7
  %11 = tail call ptr @proto_tree_add_item(ptr noundef %3, i32 noundef %4, ptr noundef %1, i32 noundef %2, i32 noundef 8, i32 noundef 0)
  %12 = tail call i32 @tvb_get_ntohl(ptr noundef %1, i32 noundef %2)
  store i32 %12, ptr %9, align 4
  %13 = add i32 %2, 4
  %14 = tail call i32 @tvb_get_ntohl(ptr noundef %1, i32 noundef %13)
  %15 = getelementptr inbounds nuw i8, ptr %9, i64 4
  store i32 %14, ptr %15, align 4
  %16 = icmp ne i32 %12, 0
  %17 = icmp ne i32 %14, 0
  %or.cond = select i1 %16, i1 true, i1 %17
  br i1 %or.cond, label %19, label %18

18:                                               ; preds = %8
  tail call void (ptr, ptr, ...) @proto_item_append_text(ptr noundef %11, ptr noundef nonnull @.str.264)
  br label %66

19:                                               ; preds = %8
  call void @llvm.lifetime.start.p0(i64 32, ptr nonnull %10) #7
  store i32 2, ptr %10, align 16
  %20 = getelementptr inbounds nuw i8, ptr %10, i64 8
  store ptr %9, ptr %20, align 8
  %21 = getelementptr inbounds nuw i8, ptr %10, i64 16
  store i32 0, ptr %21, align 16
  %22 = load ptr, ptr %5, align 8
  %23 = call ptr @wmem_tree_lookup32_array(ptr noundef %22, ptr noundef nonnull %10)
  %.not = icmp eq ptr %23, null
  br i1 %.not, label %24, label %29

24:                                               ; preds = %19
  %25 = call ptr @wmem_file_scope()
  %26 = call noalias dereferenceable_or_null(8) ptr @wmem_alloc(ptr noundef %25, i64 noundef 8) #6
  store i32 0, ptr %26, align 4
  %27 = getelementptr inbounds nuw i8, ptr %26, i64 4
  store i32 0, ptr %27, align 4
  store i32 2, ptr %10, align 16
  store ptr %9, ptr %20, align 8
  store i32 0, ptr %21, align 16
  %28 = load ptr, ptr %5, align 8
  call void @wmem_tree_insert32_array(ptr noundef %28, ptr noundef nonnull %10, ptr noundef %26)
  br label %29

29:                                               ; preds = %24, %19
  %.0 = phi ptr [ %23, %19 ], [ %26, %24 ]
  br i1 %6, label %30, label %33

30:                                               ; preds = %29
  %31 = getelementptr inbounds nuw i8, ptr %0, i64 20
  %32 = load i32, ptr %31, align 4
  store i32 %32, ptr %.0, align 4
  br label %33

33:                                               ; preds = %30, %29
  br i1 %7, label %34, label %38

34:                                               ; preds = %33
  %35 = getelementptr inbounds nuw i8, ptr %0, i64 20
  %36 = load i32, ptr %35, align 4
  %37 = getelementptr inbounds nuw i8, ptr %.0, i64 4
  store i32 %36, ptr %37, align 4
  br label %38

38:                                               ; preds = %34, %33
  %.not40 = icmp eq ptr %11, null
  br i1 %.not40, label %42, label %39

39:                                               ; preds = %38
  %40 = load i32, ptr @ett_osd_partition, align 4
  %41 = call ptr @proto_item_add_subtree(ptr noundef nonnull %11, i32 noundef %40)
  br label %42

42:                                               ; preds = %39, %38
  %.035 = phi ptr [ %41, %39 ], [ null, %38 ]
  %43 = load i32, ptr %.0, align 4
  %.not41 = icmp eq i32 %43, 0
  br i1 %.not41, label %proto_item_set_generated.exit, label %44

44:                                               ; preds = %42
  %45 = load i32, ptr @hf_scsi_osd_partition_created_in, align 4
  %46 = call ptr @proto_tree_add_uint(ptr noundef %.035, i32 noundef %45, ptr noundef %1, i32 noundef 0, i32 noundef 0, i32 noundef %43)
  %.not.i = icmp eq ptr %46, null
  br i1 %.not.i, label %proto_item_set_generated.exit, label %47

47:                                               ; preds = %44
  %48 = getelementptr inbounds nuw i8, ptr %46, i64 40
  %49 = load ptr, ptr %48, align 8
  %.not5.i = icmp eq ptr %49, null
  br i1 %.not5.i, label %proto_item_set_generated.exit, label %50

50:                                               ; preds = %47
  %51 = getelementptr inbounds nuw i8, ptr %49, i64 28
  %52 = load i32, ptr %51, align 4
  %53 = or i32 %52, 2
  store i32 %53, ptr %51, align 4
  br label %proto_item_set_generated.exit

proto_item_set_generated.exit:                    ; preds = %50, %47, %44, %42
  %54 = getelementptr inbounds nuw i8, ptr %.0, i64 4
  %55 = load i32, ptr %54, align 4
  %.not42 = icmp eq i32 %55, 0
  br i1 %.not42, label %proto_item_set_generated.exit45, label %56

56:                                               ; preds = %proto_item_set_generated.exit
  %57 = load i32, ptr @hf_scsi_osd_partition_removed_in, align 4
  %58 = call ptr @proto_tree_add_uint(ptr noundef %.035, i32 noundef %57, ptr noundef %1, i32 noundef 0, i32 noundef 0, i32 noundef %55)
  %.not.i43 = icmp eq ptr %58, null
  br i1 %.not.i43, label %proto_item_set_generated.exit45, label %59

59:                                               ; preds = %56
  %60 = getelementptr inbounds nuw i8, ptr %58, i64 40
  %61 = load ptr, ptr %60, align 8
  %.not5.i44 = icmp eq ptr %61, null
  br i1 %.not5.i44, label %proto_item_set_generated.exit45, label %62

62:                                               ; preds = %59
  %63 = getelementptr inbounds nuw i8, ptr %61, i64 28
  %64 = load i32, ptr %63, align 4
  %65 = or i32 %64, 2
  store i32 %65, ptr %63, align 4
  br label %proto_item_set_generated.exit45

proto_item_set_generated.exit45:                  ; preds = %62, %59, %56, %proto_item_set_generated.exit
  call void @llvm.lifetime.end.p0(i64 32, ptr nonnull %10) #7
  br label %66

66:                                               ; preds = %proto_item_set_generated.exit45, %18
  call void @llvm.lifetime.end.p0(i64 8, ptr nonnull %9) #7
  ret ptr %11
}